target datalayout = "e-m:e-p270:32:32-p271:32:32-p272:64:64-i64:64-i128:128-f80:128-n8:16:32:64-S128"
target triple = "x86_64-pc-linux-gnu"

%"class.llvm::RegAllocScore" = type { double, double, double, double, double, double }

; Function Attrs: mustprogress nounwind uwtable
define linkonce_odr hidden noundef double @_ZNK4llvm13RegAllocScore20expensiveRematCountsEv(ptr noundef nonnull align 8 dereferenceable(48) %0) #1 comdat align 2 {
  %2 = alloca ptr, align 8
  store ptr %0, ptr %2, align 8
  %3 = load ptr, ptr %2, align 8
  %4 = getelementptr inbounds nuw %"class.llvm::RegAllocScore", ptr %3, i32 0, i32 5
  %5 = load double, ptr %4, align 8
  ret double %5
}

; Function Attrs: mustprogress nounwind uwtable
define linkonce_odr hidden noundef double @_ZNK4llvm13RegAllocScore16cheapRematCountsEv(ptr noundef nonnull align 8 dereferenceable(48) %0) #1 comdat align 2 {
  %2 = alloca ptr, align 8
  store ptr %0, ptr %2, align 8
  %3 = load ptr, ptr %2, align 8
  %4 = getelementptr inbounds nuw %"class.llvm::RegAllocScore", ptr %3, i32 0, i32 3
  %5 = load double, ptr %4, align 8
  ret double %5
}

; Function Attrs: mustprogress nounwind uwtable
define linkonce_odr hidden noundef double @_ZNK4llvm13RegAllocScore15loadStoreCountsEv(ptr noundef nonnull align 8 dereferenceable(48) %0) #1 comdat align 2 {
  %2 = alloca ptr, align 8
  store ptr %0, ptr %2, align 8
  %3 = load ptr, ptr %2, align 8
  %4 = getelementptr inbounds nuw %"class.llvm::RegAllocScore", ptr %3, i32 0, i32 4
  %5 = load double, ptr %4, align 8
  ret double %5
}

; Function Attrs: mustprogress nounwind uwtable
define linkonce_odr hidden noundef double @_ZNK4llvm13RegAllocScore11storeCountsEv(ptr noundef nonnull align 8 dereferenceable(48) %0) #1 comdat align 2 {
  %2 = alloca ptr, align 8
  store ptr %0, ptr %2, align 8
  %3 = load ptr, ptr %2, align 8
  %4 = getelementptr inbounds nuw %"class.llvm::RegAllocScore", ptr %3, i32 0, i32 2
  %5 = load double, ptr %4, align 8
  ret double %5
}

; Function Attrs: mustprogress nounwind uwtable
define linkonce_odr hidden noundef double @_ZNK4llvm13RegAllocScore10loadCountsEv(ptr noundef nonnull align 8 dereferenceable(48) %0) #1 comdat align 2 {
  %2 = alloca ptr, align 8
  store ptr %0, ptr %2, align 8
  %3 = load ptr, ptr %2, align 8
  %4 = getelementptr inbounds nuw %"class.llvm::RegAllocScore", ptr %3, i32 0, i32 1
  %5 = load double, ptr %4, align 8
  ret double %5
}

; Function Attrs: mustprogress nounwind uwtable
define linkonce_odr hidden noundef double @_ZNK4llvm13RegAllocScore10copyCountsEv(ptr noundef nonnull align 8 dereferenceable(48) %0) #1 comdat align 2 {
  %2 = alloca ptr, align 8
  store ptr %0, ptr %2, align 8
  %3 = load ptr, ptr %2, align 8
  %4 = getelementptr inbounds nuw %"class.llvm::RegAllocScore", ptr %3, i32 0, i32 0
  %5 = load double, ptr %4, align 8
  ret double %5
}

; Function Attrs: mustprogress nounwind uwtable
define dso_local noundef zeroext i1 @_ZNK4llvm13RegAllocScoreeqERKS0_(ptr noundef nonnull align 8 dereferenceable(48) %0, ptr noundef nonnull align 8 dereferenceable(48) %1) #1 align 2 {
  %3 = alloca ptr, align 8
  %4 = alloca ptr, align 8
  store ptr %0, ptr %3, align 8
  store ptr %1, ptr %4, align 8
  %5 = load ptr, ptr %3, align 8
  %6 = call noundef double @_ZNK4llvm13RegAllocScore10copyCountsEv(ptr noundef nonnull align 8 dereferenceable(48) %5)
  %7 = load ptr, ptr %4, align 8
  %8 = call noundef double @_ZNK4llvm13RegAllocScore10copyCountsEv(ptr noundef nonnull align 8 dereferenceable(48) %7)
  %9 = fcmp oeq double %6, %8
  br i1 %9, label %10, label %35

10:                                               ; preds = %2
  %11 = call noundef double @_ZNK4llvm13RegAllocScore10loadCountsEv(ptr noundef nonnull align 8 dereferenceable(48) %5)
  %12 = load ptr, ptr %4, align 8
  %13 = call noundef double @_ZNK4llvm13RegAllocScore10loadCountsEv(ptr noundef nonnull align 8 dereferenceable(48) %12)
  %14 = fcmp oeq double %11, %13
  br i1 %14, label %15, label %35

15:                                               ; preds = %10
  %16 = call noundef double @_ZNK4llvm13RegAllocScore11storeCountsEv(ptr noundef nonnull align 8 dereferenceable(48) %5)
  %17 = load ptr, ptr %4, align 8
  %18 = call noundef double @_ZNK4llvm13RegAllocScore11storeCountsEv(ptr noundef nonnull align 8 dereferenceable(48) %17)
  %19 = fcmp oeq double %16, %18
  br i1 %19, label %20, label %35

20:                                               ; preds = %15
  %21 = call noundef double @_ZNK4llvm13RegAllocScore15loadStoreCountsEv(ptr noundef nonnull align 8 dereferenceable(48) %5)
  %22 = load ptr, ptr %4, align 8
  %23 = call noundef double @_ZNK4llvm13RegAllocScore15loadStoreCountsEv(ptr noundef nonnull align 8 dereferenceable(48) %22)
  %24 = fcmp oeq double %21, %23
  br i1 %24, label %25, label %35

25:                                               ; preds = %20
  %26 = call noundef double @_ZNK4llvm13RegAllocScore16cheapRematCountsEv(ptr noundef nonnull align 8 dereferenceable(48) %5)
  %27 = load ptr, ptr %4, align 8
  %28 = call noundef double @_ZNK4llvm13RegAllocScore16cheapRematCountsEv(ptr noundef nonnull align 8 dereferenceable(48) %27)
  %29 = fcmp oeq double %26, %28
  br i1 %29, label %30, label %35

30:                                               ; preds = %25
  %31 = call noundef double @_ZNK4llvm13RegAllocScore20expensiveRematCountsEv(ptr noundef nonnull align 8 dereferenceable(48) %5)
  %32 = load ptr, ptr %4, align 8
  %33 = call noundef double @_ZNK4llvm13RegAllocScore20expensiveRematCountsEv(ptr noundef nonnull align 8 dereferenceable(48) %32)
  %34 = fcmp oeq double %31, %33
  br label %35

35:                                               ; preds = %30, %25, %20, %15, %10, %2
  %36 = phi i1 [ false, %25 ], [ false, %20 ], [ false, %15 ], [ false, %10 ], [ false, %2 ], [ %34, %30 ]
  ret i1 %36
}

; Function Attrs: mustprogress nounwind uwtable
define dso_local noundef zeroext i1 @_ZNK4llvm13RegAllocScoreneERKS0_(ptr noundef nonnull align 8 dereferenceable(48) %0, ptr noundef nonnull align 8 dereferenceable(48) %1) #1 align 2 {
  %3 = alloca ptr, align 8
  %4 = alloca ptr, align 8
  store ptr %0, ptr %3, align 8
  store ptr %1, ptr %4, align 8
  %5 = load ptr, ptr %3, align 8
  %6 = load ptr, ptr %4, align 8
  %7 = call noundef zeroext i1 @_ZNK4llvm13RegAllocScoreeqERKS0_(ptr noundef nonnull align 8 dereferenceable(48) %5, ptr noundef nonnull align 8 dereferenceable(48) %6)
  %8 = xor i1 %7, true
  ret i1 %8
}