; Function Attrs: mustprogress nofree norecurse nosync nounwind willreturn memory(argmem: read) uwtable
define dso_local noundef zeroext i1 @_ZNK4llvm13RegAllocScoreneERKS0_(ptr noundef nonnull readonly align 8 captures(none) dereferenceable(48) %0, ptr noundef nonnull readonly align 8 captures(none) dereferenceable(48) %1) local_unnamed_addr #3 align 2 {
  %3 = load double, ptr %0, align 8
  %4 = load double, ptr %1, align 8
  %5 = fcmp oeq double %3, %4
  br i1 %5, label %6, label %_ZNK4llvm13RegAllocScoreeqERKS0_.exit

6:                                                ; preds = %2
  %7 = getelementptr inbounds nuw i8, ptr %0, i64 8
  %8 = load double, ptr %7, align 8
  %9 = getelementptr inbounds nuw i8, ptr %1, i64 8
  %10 = load double, ptr %9, align 8
  %11 = fcmp oeq double %8, %10
  br i1 %11, label %12, label %_ZNK4llvm13RegAllocScoreeqERKS0_.exit

12:                                               ; preds = %6
  %13 = getelementptr inbounds nuw i8, ptr %0, i64 16
  %14 = load double, ptr %13, align 8
  %15 = getelementptr inbounds nuw i8, ptr %1, i64 16
  %16 = load double, ptr %15, align 8
  %17 = fcmp oeq double %14, %16
  br i1 %17, label %18, label %_ZNK4llvm13RegAllocScoreeqERKS0_.exit

18:                                               ; preds = %12
  %19 = getelementptr inbounds nuw i8, ptr %0, i64 32
  %20 = load double, ptr %19, align 8
  %21 = getelementptr inbounds nuw i8, ptr %1, i64 32
  %22 = load double, ptr %21, align 8
  %23 = fcmp oeq double %20, %22
  br i1 %23, label %24, label %_ZNK4llvm13RegAllocScoreeqERKS0_.exit

24:                                               ; preds = %18
  %25 = getelementptr inbounds nuw i8, ptr %0, i64 24
  %26 = load double, ptr %25, align 8
  %27 = getelementptr inbounds nuw i8, ptr %1, i64 24
  %28 = load double, ptr %27, align 8
  %29 = fcmp oeq double %26, %28
  br i1 %29, label %30, label %_ZNK4llvm13RegAllocScoreeqERKS0_.exit

30:                                               ; preds = %24
  %31 = getelementptr inbounds nuw i8, ptr %0, i64 40
  %32 = load double, ptr %31, align 8
  %33 = getelementptr inbounds nuw i8, ptr %1, i64 40
  %34 = load double, ptr %33, align 8
  %35 = fcmp une double %32, %34
  br label %_ZNK4llvm13RegAllocScoreeqERKS0_.exit

_ZNK4llvm13RegAllocScoreeqERKS0_.exit:            ; preds = %2, %6, %12, %18, %24, %30
  %36 = phi i1 [ true, %24 ], [ true, %18 ], [ true, %12 ], [ true, %6 ], [ true, %2 ], [ %35, %30 ]
  ret i1 %36
}